target datalayout = "e-m:e-p270:32:32-p271:32:32-p272:64:64-i64:64-i128:128-f80:128-n8:16:32:64-S128"
target triple = "x86_64-pc-linux-gnu"

%struct.Type = type { i32, i32, i32, i8, i8, ptr, ptr, ptr, ptr, i32, ptr, ptr, ptr, i8, i8, ptr, ptr, i8, ptr }
%struct.Node = type { i32, ptr, ptr, ptr, ptr, ptr, ptr, ptr, ptr, ptr, ptr, ptr, ptr, ptr, ptr, ptr, ptr, i8, ptr, ptr, ptr, ptr, ptr, ptr, i64, i64, ptr, ptr, ptr, ptr, ptr, ptr, ptr, i64, x86_fp80 }

@.str.20 = private unnamed_addr constant [17 x i8] c"  sub $%d, %%rsp\00", align 1
@depth = internal global i32 0, align 4
@.str.219 = private unnamed_addr constant [13 x i8] c"  push %%rax\00", align 1
@.str.247 = private unnamed_addr constant [16 x i8] c"  sub $8, %%rsp\00", align 1
@.str.248 = private unnamed_addr constant [17 x i8] c"  sub $16, %%rsp\00", align 1
@.str.249 = private unnamed_addr constant [16 x i8] c"  fstpt (%%rsp)\00", align 1
@.str.250 = private unnamed_addr constant [24 x i8] c"  mov %d(%%rax), %%r10b\00", align 1
@.str.251 = private unnamed_addr constant [24 x i8] c"  mov %%r10b, %d(%%rsp)\00", align 1
@.str.260 = private unnamed_addr constant [24 x i8] c"  movsd %%xmm0, (%%rsp)\00", align 1

; Function Attrs: nounwind uwtable
define dso_local i32 @align_to(i32 noundef %0, i32 noundef %1) #0 {
  %3 = alloca i32, align 4
  %4 = alloca i32, align 4
  store i32 %0, ptr %3, align 4, !tbaa !7
  store i32 %1, ptr %4, align 4, !tbaa !7
  %5 = load i32, ptr %3, align 4, !tbaa !7
  %6 = load i32, ptr %4, align 4, !tbaa !7
  %7 = add nsw i32 %5, %6
  %8 = sub nsw i32 %7, 1
  %9 = load i32, ptr %4, align 4, !tbaa !7
  %10 = sdiv i32 %8, %9
  %11 = load i32, ptr %4, align 4, !tbaa !7
  %12 = mul nsw i32 %10, %11
  ret i32 %12
}

; Function Attrs: nounwind uwtable
define internal void @push() #0 {
  call void (ptr, ...) @println(ptr noundef @.str.219)
  %1 = load i32, ptr @depth, align 4, !tbaa !7
  %2 = add nsw i32 %1, 1
  store i32 %2, ptr @depth, align 4, !tbaa !7
  ret void
}

; Function Attrs: nounwind uwtable
define internal void @pushf() #0 {
  call void (ptr, ...) @println(ptr noundef @.str.247)
  call void (ptr, ...) @println(ptr noundef @.str.260)
  %1 = load i32, ptr @depth, align 4, !tbaa !7
  %2 = add nsw i32 %1, 1
  store i32 %2, ptr @depth, align 4, !tbaa !7
  ret void
}

; Function Attrs: nounwind uwtable
define internal void @push_struct(ptr noundef %0) #0 {
  %2 = alloca ptr, align 8
  %3 = alloca i32, align 4
  %4 = alloca i32, align 4
  store ptr %0, ptr %2, align 8, !tbaa !37
  call void @llvm.lifetime.start.p0(i64 4, ptr %3) #8
  %5 = load ptr, ptr %2, align 8, !tbaa !37
  %6 = getelementptr inbounds nuw %struct.Type, ptr %5, i32 0, i32 1
  %7 = load i32, ptr %6, align 4, !tbaa !41
  %8 = call i32 @align_to(i32 noundef %7, i32 noundef 8)
  store i32 %8, ptr %3, align 4, !tbaa !7
  %9 = load i32, ptr %3, align 4, !tbaa !7
  call void (ptr, ...) @println(ptr noundef @.str.20, i32 noundef %9)
  %10 = load i32, ptr %3, align 4, !tbaa !7
  %11 = sdiv i32 %10, 8
  %12 = load i32, ptr @depth, align 4, !tbaa !7
  %13 = add nsw i32 %12, %11
  store i32 %13, ptr @depth, align 4, !tbaa !7
  call void @llvm.lifetime.start.p0(i64 4, ptr %4) #8
  store i32 0, ptr %4, align 4, !tbaa !7
  br label %14

14:                                               ; preds = %24, %1
  %15 = load i32, ptr %4, align 4, !tbaa !7
  %16 = load ptr, ptr %2, align 8, !tbaa !37
  %17 = getelementptr inbounds nuw %struct.Type, ptr %16, i32 0, i32 1
  %18 = load i32, ptr %17, align 4, !tbaa !41
  %19 = icmp slt i32 %15, %18
  br i1 %19, label %21, label %20

20:                                               ; preds = %14
  call void @llvm.lifetime.end.p0(i64 4, ptr %4) #8
  br label %27

21:                                               ; preds = %14
  %22 = load i32, ptr %4, align 4, !tbaa !7
  call void (ptr, ...) @println(ptr noundef @.str.250, i32 noundef %22)
  %23 = load i32, ptr %4, align 4, !tbaa !7
  call void (ptr, ...) @println(ptr noundef @.str.251, i32 noundef %23)
  br label %24

24:                                               ; preds = %21
  %25 = load i32, ptr %4, align 4, !tbaa !7
  %26 = add nsw i32 %25, 1
  store i32 %26, ptr %4, align 4, !tbaa !7
  br label %14, !llvm.loop !142

27:                                               ; preds = %20
  call void @llvm.lifetime.end.p0(i64 4, ptr %3) #8
  ret void
}

; Function Attrs: nounwind uwtable
define internal void @push_args2(ptr noundef %0, i1 noundef zeroext %1) #0 {
  %3 = alloca ptr, align 8
  %4 = alloca i8, align 1
  store ptr %0, ptr %3, align 8, !tbaa !86
  %5 = zext i1 %1 to i8
  store i8 %5, ptr %4, align 1, !tbaa !42
  %6 = load ptr, ptr %3, align 8, !tbaa !86
  %7 = icmp ne ptr %6, null
  br i1 %7, label %9, label %8

8:                                                ; preds = %2
  br label %47

9:                                                ; preds = %2
  %10 = load ptr, ptr %3, align 8, !tbaa !86
  %11 = getelementptr inbounds nuw %struct.Node, ptr %10, i32 0, i32 1
  %12 = load ptr, ptr %11, align 8, !tbaa !111
  %13 = load i8, ptr %4, align 1, !tbaa !42, !range !33, !noundef !34
  %14 = trunc i8 %13 to i1
  call void @push_args2(ptr noundef %12, i1 noundef zeroext %14)
  %15 = load i8, ptr %4, align 1, !tbaa !42, !range !33, !noundef !34
  %16 = trunc i8 %15 to i1
  br i1 %16, label %17, label %22

17:                                               ; preds = %9
  %18 = load ptr, ptr %3, align 8, !tbaa !86
  %19 = getelementptr inbounds nuw %struct.Node, ptr %18, i32 0, i32 17
  %20 = load i8, ptr %19, align 8, !tbaa !138, !range !33, !noundef !34
  %21 = trunc i8 %20 to i1
  br i1 %21, label %22, label %30

22:                                               ; preds = %17, %9
  %23 = load i8, ptr %4, align 1, !tbaa !42, !range !33, !noundef !34
  %24 = trunc i8 %23 to i1
  br i1 %24, label %31, label %25

25:                                               ; preds = %22
  %26 = load ptr, ptr %3, align 8, !tbaa !86
  %27 = getelementptr inbounds nuw %struct.Node, ptr %26, i32 0, i32 17
  %28 = load i8, ptr %27, align 8, !tbaa !138, !range !33, !noundef !34
  %29 = trunc i8 %28 to i1
  br i1 %29, label %30, label %31

30:                                               ; preds = %25, %17
  br label %47

31:                                               ; preds = %25, %22
  %32 = load ptr, ptr %3, align 8, !tbaa !86
  call void @gen_expr(ptr noundef %32)
  %33 = load ptr, ptr %3, align 8, !tbaa !86
  %34 = getelementptr inbounds nuw %struct.Node, ptr %33, i32 0, i32 2
  %35 = load ptr, ptr %34, align 16, !tbaa !96
  %36 = getelementptr inbounds nuw %struct.Type, ptr %35, i32 0, i32 0
  %37 = load i32, ptr %36, align 8, !tbaa !38
  switch i32 %37, label %46 [
    i32 14, label %38
    i32 15, label %38
    i32 6, label %42
    i32 7, label %42
    i32 8, label %43
  ]

38:                                               ; preds = %31, %31
  %39 = load ptr, ptr %3, align 8, !tbaa !86
  %40 = getelementptr inbounds nuw %struct.Node, ptr %39, i32 0, i32 2
  %41 = load ptr, ptr %40, align 16, !tbaa !96
  call void @push_struct(ptr noundef %41)
  br label %47

42:                                               ; preds = %31, %31
  call void @pushf()
  br label %47

43:                                               ; preds = %31
  call void (ptr, ...) @println(ptr noundef @.str.248)
  call void (ptr, ...) @println(ptr noundef @.str.249)
  %44 = load i32, ptr @depth, align 4, !tbaa !7
  %45 = add nsw i32 %44, 2
  store i32 %45, ptr @depth, align 4, !tbaa !7
  br label %47

46:                                               ; preds = %31
  call void @push()
  br label %47

47:                                               ; preds = %8, %30, %46, %43, %42, %38
  ret void
}