; Function Attrs: nounwind uwtable
define internal fastcc void @push_args2(ptr noundef %0, i1 noundef zeroext %1) unnamed_addr #1 {
  %.not = icmp eq ptr %0, null
  br i1 %.not, label %push_struct.exit, label %3

3:                                                ; preds = %2
  %4 = getelementptr inbounds nuw i8, ptr %0, i64 8
  %5 = load ptr, ptr %4, align 8, !tbaa !134
  tail call fastcc void @push_args2(ptr noundef %5, i1 noundef zeroext %1)
  %6 = getelementptr inbounds nuw i8, ptr %0, i64 136
  %7 = load i8, ptr %6, align 8, !tbaa !119, !range !25, !noundef !26
  %8 = trunc nuw i8 %7 to i1
  %9 = xor i1 %1, %8
  br i1 %9, label %push_struct.exit, label %10

10:                                               ; preds = %3
  tail call fastcc void @gen_expr(ptr noundef nonnull %0)
  %11 = getelementptr inbounds nuw i8, ptr %0, i64 16
  %12 = load ptr, ptr %11, align 16, !tbaa !89
  %13 = load i32, ptr %12, align 8, !tbaa !29
  switch i32 %13, label %push_struct.exit.sink.split [
    i32 14, label %14
    i32 15, label %14
    i32 6, label %push_struct.exit.sink.split.sink.split
    i32 7, label %push_struct.exit.sink.split.sink.split
    i32 8, label %28
  ]

14:                                               ; preds = %10, %10
  %15 = getelementptr inbounds nuw i8, ptr %12, i64 4
  %16 = load i32, ptr %15, align 4, !tbaa !32
  %17 = add i32 %16, 7
  %18 = srem i32 %17, 8
  %19 = sub nsw i32 %17, %18
  tail call void (ptr, ...) @println(ptr noundef nonnull @.str.20, i32 noundef %19)
  %20 = sdiv i32 %17, 8
  %21 = load i32, ptr @depth, align 4, !tbaa !87
  %22 = add nsw i32 %21, %20
  store i32 %22, ptr @depth, align 4, !tbaa !87
  %23 = load i32, ptr %15, align 4, !tbaa !32
  %24 = icmp sgt i32 %23, 0
  br i1 %24, label %.lr.ph.i, label %push_struct.exit

.lr.ph.i:                                         ; preds = %14, %.lr.ph.i
  %.07.i = phi i32 [ %25, %.lr.ph.i ], [ 0, %14 ]
  tail call void (ptr, ...) @println(ptr noundef nonnull @.str.250, i32 noundef %.07.i)
  tail call void (ptr, ...) @println(ptr noundef nonnull @.str.251, i32 noundef %.07.i)
  %25 = add nuw nsw i32 %.07.i, 1
  %26 = load i32, ptr %15, align 4, !tbaa !32
  %27 = icmp slt i32 %25, %26
  br i1 %27, label %.lr.ph.i, label %push_struct.exit, !llvm.loop !135

28:                                               ; preds = %10
  br label %push_struct.exit.sink.split.sink.split

push_struct.exit.sink.split.sink.split:           ; preds = %10, %10, %28
  %.str.247.sink = phi ptr [ @.str.248, %28 ], [ @.str.247, %10 ], [ @.str.247, %10 ]
  %.str.219.sink.ph = phi ptr [ @.str.249, %28 ], [ @.str.260, %10 ], [ @.str.260, %10 ]
  %.sink10.ph = phi i32 [ 2, %28 ], [ 1, %10 ], [ 1, %10 ]
  tail call void (ptr, ...) @println(ptr noundef nonnull %.str.247.sink)
  br label %push_struct.exit.sink.split

push_struct.exit.sink.split:                      ; preds = %push_struct.exit.sink.split.sink.split, %10
  %.str.219.sink = phi ptr [ @.str.219, %10 ], [ %.str.219.sink.ph, %push_struct.exit.sink.split.sink.split ]
  %.sink10 = phi i32 [ 1, %10 ], [ %.sink10.ph, %push_struct.exit.sink.split.sink.split ]
  tail call void (ptr, ...) @println(ptr noundef nonnull %.str.219.sink)
  %29 = load i32, ptr @depth, align 4, !tbaa !87
  %30 = add nsw i32 %29, %.sink10
  store i32 %30, ptr @depth, align 4, !tbaa !87
  br label %push_struct.exit

push_struct.exit:                                 ; preds = %.lr.ph.i, %push_struct.exit.sink.split, %3, %14, %2
  ret void
}